; Function Attrs: mustprogress uwtable
define void @_ZN7testing8internal24GetCurrentExecutableNameEv(ptr noalias sret(%"class.testing::internal::FilePath") align 8 %agg.result) local_unnamed_addr #3 personality ptr @__gxx_personality_v0 {
entry:
  %result = alloca %"class.testing::internal::FilePath", align 8
  %ref.tmp = alloca %"class.testing::internal::FilePath", align 8
  call void @_ZN7testing8internal8FilePathC2Ev(ptr noundef nonnull align 8 dereferenceable(32) %result)
  %0 = load ptr, ptr @_ZN7testing8internal7g_argvsB5cxx11E, align 8
  invoke void @_ZNSt7__cxx1112basic_stringIcSt11char_traitsIcESaIcEEC1ERKS4_(ptr noundef nonnull align 8 dereferenceable(32) %ref.tmp, ptr noundef nonnull align 8 dereferenceable(32) %0)
          to label %.noexc unwind label %lpad

.noexc:                                           ; preds = %entry
  invoke void @_ZN7testing8internal8FilePath9NormalizeEv(ptr noundef nonnull align 8 dereferenceable(32) %ref.tmp)
          to label %invoke.cont unwind label %lpad.i

lpad.i:                                           ; preds = %.noexc
  %1 = landingpad { ptr, i32 }
          cleanup
  call void @_ZNSt7__cxx1112basic_stringIcSt11char_traitsIcESaIcEED1Ev(ptr noundef nonnull align 8 dereferenceable(32) %ref.tmp) #47
  br label %ehcleanup

invoke.cont:                                      ; preds = %.noexc
  %call.i2 = invoke noundef nonnull align 8 dereferenceable(32) ptr @_ZNSt7__cxx1112basic_stringIcSt11char_traitsIcESaIcEEaSERKS4_(ptr noundef nonnull align 8 dereferenceable(32) %result, ptr noundef nonnull align 8 dereferenceable(32) %ref.tmp)
          to label %invoke.cont3 unwind label %lpad2

invoke.cont3:                                     ; preds = %invoke.cont
  call void @_ZNSt7__cxx1112basic_stringIcSt11char_traitsIcESaIcEED1Ev(ptr noundef nonnull align 8 dereferenceable(32) %ref.tmp) #47
  invoke void @_ZNK7testing8internal8FilePath19RemoveDirectoryNameEv(ptr sret(%"class.testing::internal::FilePath") align 8 %agg.result, ptr noundef nonnull align 8 dereferenceable(32) %result)
          to label %invoke.cont4 unwind label %lpad

invoke.cont4:                                     ; preds = %invoke.cont3
  call void @_ZNSt7__cxx1112basic_stringIcSt11char_traitsIcESaIcEED1Ev(ptr noundef nonnull align 8 dereferenceable(32) %result) #47
  ret void

lpad:                                             ; preds = %entry, %invoke.cont3
  %2 = landingpad { ptr, i32 }
          cleanup
  br label %ehcleanup

lpad2:                                            ; preds = %invoke.cont
  %3 = landingpad { ptr, i32 }
          cleanup
  call void @_ZNSt7__cxx1112basic_stringIcSt11char_traitsIcESaIcEED1Ev(ptr noundef nonnull align 8 dereferenceable(32) %ref.tmp) #47
  br label %ehcleanup

ehcleanup:                                        ; preds = %lpad, %lpad.i, %lpad2
  %.pn = phi { ptr, i32 } [ %3, %lpad2 ], [ %2, %lpad ], [ %1, %lpad.i ]
  call void @_ZNSt7__cxx1112basic_stringIcSt11char_traitsIcESaIcEED1Ev(ptr noundef nonnull align 8 dereferenceable(32) %result) #47
  resume { ptr, i32 } %.pn
}